target datalayout = "e-m:e-p270:32:32-p271:32:32-p272:64:64-i64:64-f80:128-n8:16:32:64-S128"
target triple = "x86_64-pc-linux-gnu"

@.str = private unnamed_addr constant [3 x i8] c"%s\00", align 1
@str = common dso_local global [510 x [510 x [510 x i8]]] zeroinitializer, align 16
@.str.1 = private unnamed_addr constant [4 x i8] c"%s\0A\00", align 1

; Function Attrs: noinline nounwind uwtable
define dso_local i32 @huiwen(i8* %0) #0 {
  %2 = alloca i32, align 4
  %3 = alloca i8*, align 8
  %4 = alloca i32, align 4
  %5 = alloca i32, align 4
  %6 = alloca [510 x i8], align 16
  store i8* %0, i8** %3, align 8
  %7 = load i8*, i8** %3, align 8
  %8 = call i64 @strlen(i8* %7) #3
  %9 = trunc i64 %8 to i32
  store i32 %9, i32* %4, align 4
  store i32 0, i32* %5, align 4
  br label %10

10:                                               ; preds = %26, %1
  %11 = load i32, i32* %5, align 4
  %12 = load i32, i32* %4, align 4
  %13 = icmp slt i32 %11, %12
  br i1 %13, label %14, label %29

14:                                               ; preds = %10
  %15 = load i8*, i8** %3, align 8
  %16 = load i32, i32* %4, align 4
  %17 = sub nsw i32 %16, 1
  %18 = load i32, i32* %5, align 4
  %19 = sub nsw i32 %17, %18
  %20 = sext i32 %19 to i64
  %21 = getelementptr inbounds i8, i8* %15, i64 %20
  %22 = load i8, i8* %21, align 1
  %23 = load i32, i32* %5, align 4
  %24 = sext i32 %23 to i64
  %25 = getelementptr inbounds [510 x i8], [510 x i8]* %6, i64 0, i64 %24
  store i8 %22, i8* %25, align 1
  br label %26

26:                                               ; preds = %14
  %27 = load i32, i32* %5, align 4
  %28 = add nsw i32 %27, 1
  store i32 %28, i32* %5, align 4
  br label %10

29:                                               ; preds = %10
  %30 = load i32, i32* %4, align 4
  %31 = sext i32 %30 to i64
  %32 = getelementptr inbounds [510 x i8], [510 x i8]* %6, i64 0, i64 %31
  store i8 0, i8* %32, align 1
  %33 = load i8*, i8** %3, align 8
  %34 = getelementptr inbounds [510 x i8], [510 x i8]* %6, i64 0, i64 0
  %35 = call i32 @strcmp(i8* %33, i8* %34) #3
  %36 = icmp eq i32 %35, 0
  br i1 %36, label %37, label %38

37:                                               ; preds = %29
  store i32 1, i32* %2, align 4
  br label %39

38:                                               ; preds = %29
  store i32 0, i32* %2, align 4
  br label %39

39:                                               ; preds = %38, %37
  %40 = load i32, i32* %2, align 4
  ret i32 %40
}

; Function Attrs: noinline nounwind uwtable
define dso_local i32 @main() #0 {
  %1 = alloca i32, align 4
  %2 = alloca [510 x i8], align 16
  %3 = alloca i32, align 4
  %4 = alloca i32, align 4
  %5 = alloca i32, align 4
  %6 = alloca i32, align 4
  store i32 0, i32* %1, align 4
  %7 = getelementptr inbounds [510 x i8], [510 x i8]* %2, i64 0, i64 0
  %8 = call i32 (i8*, ...) @__isoc99_scanf(i8* getelementptr inbounds ([3 x i8], [3 x i8]* @.str, i64 0, i64 0), i8* %7)
  %9 = getelementptr inbounds [510 x i8], [510 x i8]* %2, i64 0, i64 0
  %10 = call i64 @strlen(i8* %9) #3
  %11 = trunc i64 %10 to i32
  store i32 %11, i32* %6, align 4
  store i32 2, i32* %3, align 4
  br label %12

12:                                               ; preds = %53, %0
  %13 = load i32, i32* %3, align 4
  %14 = load i32, i32* %6, align 4
  %15 = icmp sle i32 %13, %14
  br i1 %15, label %16, label %56

16:                                               ; preds = %12
  store i32 0, i32* %4, align 4
  br label %17

17:                                               ; preds = %49, %16
  %18 = load i32, i32* %4, align 4
  %19 = load i32, i32* %6, align 4
  %20 = load i32, i32* %3, align 4
  %21 = sub nsw i32 %19, %20
  %22 = add nsw i32 %21, 1
  %23 = icmp slt i32 %18, %22
  br i1 %23, label %24, label %52

24:                                               ; preds = %17
  store i32 0, i32* %5, align 4
  br label %25

25:                                               ; preds = %45, %24
  %26 = load i32, i32* %5, align 4
  %27 = load i32, i32* %3, align 4
  %28 = icmp slt i32 %26, %27
  br i1 %28, label %29, label %48

29:                                               ; preds = %25
  %30 = load i32, i32* %4, align 4
  %31 = load i32, i32* %5, align 4
  %32 = add nsw i32 %30, %31
  %33 = sext i32 %32 to i64
  %34 = getelementptr inbounds [510 x i8], [510 x i8]* %2, i64 0, i64 %33
  %35 = load i8, i8* %34, align 1
  %36 = load i32, i32* %3, align 4
  %37 = sext i32 %36 to i64
  %38 = getelementptr inbounds [510 x [510 x [510 x i8]]], [510 x [510 x [510 x i8]]]* @str, i64 0, i64 %37
  %39 = load i32, i32* %4, align 4
  %40 = sext i32 %39 to i64
  %41 = getelementptr inbounds [510 x [510 x i8]], [510 x [510 x i8]]* %38, i64 0, i64 %40
  %42 = load i32, i32* %5, align 4
  %43 = sext i32 %42 to i64
  %44 = getelementptr inbounds [510 x i8], [510 x i8]* %41, i64 0, i64 %43
  store i8 %35, i8* %44, align 1
  br label %45

45:                                               ; preds = %29
  %46 = load i32, i32* %5, align 4
  %47 = add nsw i32 %46, 1
  store i32 %47, i32* %5, align 4
  br label %25

48:                                               ; preds = %25
  br label %49

49:                                               ; preds = %48
  %50 = load i32, i32* %4, align 4
  %51 = add nsw i32 %50, 1
  store i32 %51, i32* %4, align 4
  br label %17

52:                                               ; preds = %17
  br label %53

53:                                               ; preds = %52
  %54 = load i32, i32* %3, align 4
  %55 = add nsw i32 %54, 1
  store i32 %55, i32* %3, align 4
  br label %12

56:                                               ; preds = %12
  store i32 2, i32* %3, align 4
  br label %57

57:                                               ; preds = %93, %56
  %58 = load i32, i32* %3, align 4
  %59 = load i32, i32* %6, align 4
  %60 = icmp sle i32 %58, %59
  br i1 %60, label %61, label %96

61:                                               ; preds = %57
  store i32 0, i32* %4, align 4
  br label %62

62:                                               ; preds = %89, %61
  %63 = load i32, i32* %4, align 4
  %64 = load i32, i32* %6, align 4
  %65 = load i32, i32* %3, align 4
  %66 = sub nsw i32 %64, %65
  %67 = add nsw i32 %66, 1
  %68 = icmp slt i32 %63, %67
  br i1 %68, label %69, label %92

69:                                               ; preds = %62
  %70 = load i32, i32* %3, align 4
  %71 = sext i32 %70 to i64
  %72 = getelementptr inbounds [510 x [510 x [510 x i8]]], [510 x [510 x [510 x i8]]]* @str, i64 0, i64 %71
  %73 = load i32, i32* %4, align 4
  %74 = sext i32 %73 to i64
  %75 = getelementptr inbounds [510 x [510 x i8]], [510 x [510 x i8]]* %72, i64 0, i64 %74
  %76 = getelementptr inbounds [510 x i8], [510 x i8]* %75, i64 0, i64 0
  %77 = call i32 @huiwen(i8* %76)
  %78 = icmp ne i32 %77, 0
  br i1 %78, label %79, label %88

79:                                               ; preds = %69
  %80 = load i32, i32* %3, align 4
  %81 = sext i32 %80 to i64
  %82 = getelementptr inbounds [510 x [510 x [510 x i8]]], [510 x [510 x [510 x i8]]]* @str, i64 0, i64 %81
  %83 = load i32, i32* %4, align 4
  %84 = sext i32 %83 to i64
  %85 = getelementptr inbounds [510 x [510 x i8]], [510 x [510 x i8]]* %82, i64 0, i64 %84
  %86 = getelementptr inbounds [510 x i8], [510 x i8]* %85, i64 0, i64 0
  %87 = call i32 (i8*, ...) @printf(i8* getelementptr inbounds ([4 x i8], [4 x i8]* @.str.1, i64 0, i64 0), i8* %86)
  br label %88

88:                                               ; preds = %79, %69
  br label %89

89:                                               ; preds = %88
  %90 = load i32, i32* %4, align 4
  %91 = add nsw i32 %90, 1
  store i32 %91, i32* %4, align 4
  br label %62

92:                                               ; preds = %62
  br label %93

93:                                               ; preds = %92
  %94 = load i32, i32* %3, align 4
  %95 = add nsw i32 %94, 1
  store i32 %95, i32* %3, align 4
  br label %57

96:                                               ; preds = %57
  ret i32 0
}